target datalayout = "e-m:e-p270:32:32-p271:32:32-p272:64:64-i64:64-i128:128-f80:128-n8:16:32:64-S128"
target triple = "x86_64-pc-linux-gnu"

%struct._GtkTreeIter = type { i32, ptr, ptr, ptr }
%struct._GdkEventScroll = type { i32, ptr, i8, i32, double, double, i32, i32, ptr, double, double, double, double, i8 }

; Function Attrs: nounwind uwtable
define internal i32 @mouse_scroll(ptr noundef %0, ptr noundef %1, ptr noundef %2) #0 {
  %4 = alloca i32, align 4
  %5 = alloca ptr, align 8
  %6 = alloca ptr, align 8
  %7 = alloca ptr, align 8
  %8 = alloca ptr, align 8
  %9 = alloca %struct._GtkTreeIter, align 8
  %10 = alloca ptr, align 8
  %11 = alloca i32, align 4
  %12 = alloca ptr, align 8
  %13 = alloca i32, align 4
  store ptr %0, ptr %5, align 8, !tbaa !197
  store ptr %1, ptr %6, align 8, !tbaa !216
  store ptr %2, ptr %7, align 8, !tbaa !218
  call void @llvm.lifetime.start.p0(i64 8, ptr %8) #13
  %14 = load ptr, ptr %5, align 8, !tbaa !197
  %15 = call i64 @gtk_tree_view_get_type() #16
  %16 = call ptr @g_type_check_instance_cast(ptr noundef %14, i64 noundef %15)
  %17 = call ptr @gtk_tree_view_get_selection(ptr noundef %16)
  store ptr %17, ptr %8, align 8, !tbaa !172
  call void @llvm.lifetime.start.p0(i64 32, ptr %9) #13
  call void @llvm.lifetime.start.p0(i64 8, ptr %10) #13
  %18 = load ptr, ptr %5, align 8, !tbaa !197
  %19 = call ptr @gtk_tree_view_get_model(ptr noundef %18)
  store ptr %19, ptr %10, align 8, !tbaa !170
  %20 = load ptr, ptr %8, align 8, !tbaa !172
  %21 = call i32 @gtk_tree_selection_get_selected(ptr noundef %20, ptr noundef %10, ptr noundef %9)
  %22 = icmp ne i32 %21, 0
  br i1 %22, label %23, label %48

23:                                               ; preds = %3
  call void @llvm.lifetime.start.p0(i64 4, ptr %11) #13
  store i32 0, ptr %11, align 4, !tbaa !16
  %24 = load ptr, ptr %6, align 8, !tbaa !216
  %25 = getelementptr inbounds nuw %struct._GdkEventScroll, ptr %24, i32 0, i32 12
  %26 = load double, ptr %25, align 8, !tbaa !219
  %27 = fcmp reassoc nsz arcp contract afn ogt double %26, 0.000000e+00
  br i1 %27, label %28, label %31

28:                                               ; preds = %23
  %29 = load ptr, ptr %10, align 8, !tbaa !170
  %30 = call i32 @gtk_tree_model_iter_next(ptr noundef %29, ptr noundef %9)
  store i32 %30, ptr %11, align 4, !tbaa !16
  br label %34

31:                                               ; preds = %23
  %32 = load ptr, ptr %10, align 8, !tbaa !170
  %33 = call i32 @gtk_tree_model_iter_previous(ptr noundef %32, ptr noundef %9)
  store i32 %33, ptr %11, align 4, !tbaa !16
  br label %34

34:                                               ; preds = %31, %28
  %35 = load i32, ptr %11, align 4, !tbaa !16
  %36 = icmp ne i32 %35, 0
  br i1 %36, label %37, label %44

37:                                               ; preds = %34
  %38 = load ptr, ptr %8, align 8, !tbaa !172
  call void @gtk_tree_selection_select_iter(ptr noundef %38, ptr noundef %9)
  call void @llvm.lifetime.start.p0(i64 8, ptr %12) #13
  %39 = load ptr, ptr %10, align 8, !tbaa !170
  %40 = call ptr @gtk_tree_model_get_path(ptr noundef %39, ptr noundef %9)
  store ptr %40, ptr %12, align 8, !tbaa !223
  %41 = load ptr, ptr %5, align 8, !tbaa !197
  %42 = load ptr, ptr %12, align 8, !tbaa !223
  call void @gtk_tree_view_set_cursor(ptr noundef %41, ptr noundef %42, ptr noundef null, i32 noundef 0)
  %43 = load ptr, ptr %12, align 8, !tbaa !223
  call void @gtk_tree_path_free(ptr noundef %43)
  store i32 1, ptr %4, align 4
  store i32 1, ptr %13, align 4
  call void @llvm.lifetime.end.p0(i64 8, ptr %12) #13
  br label %45

44:                                               ; preds = %34
  store i32 0, ptr %13, align 4
  br label %45

45:                                               ; preds = %44, %37
  call void @llvm.lifetime.end.p0(i64 4, ptr %11) #13
  %46 = load i32, ptr %13, align 4
  switch i32 %46, label %49 [
    i32 0, label %47
  ]

47:                                               ; preds = %45
  br label %48

48:                                               ; preds = %47, %3
  store i32 0, ptr %4, align 4
  store i32 1, ptr %13, align 4
  br label %49

49:                                               ; preds = %48, %45
  call void @llvm.lifetime.end.p0(i64 8, ptr %10) #13
  call void @llvm.lifetime.end.p0(i64 32, ptr %9) #13
  call void @llvm.lifetime.end.p0(i64 8, ptr %8) #13
  %50 = load i32, ptr %4, align 4
  ret i32 %50
}