; Function Attrs: nounwind uwtable
define internal range(i32 0, 2) i32 @mouse_scroll(ptr noundef %0, ptr noundef readonly captures(none) %1, ptr readnone captures(none) %2) #1 {
  %4 = alloca %struct._GtkTreeIter, align 8
  %5 = alloca ptr, align 8
  %6 = tail call i64 @gtk_tree_view_get_type() #28
  %7 = tail call ptr @g_type_check_instance_cast(ptr noundef %0, i64 noundef %6) #25
  %8 = tail call ptr @gtk_tree_view_get_selection(ptr noundef %7) #25
  call void @llvm.lifetime.start.p0(i64 32, ptr nonnull %4) #25
  call void @llvm.lifetime.start.p0(i64 8, ptr nonnull %5) #25
  %9 = tail call ptr @gtk_tree_view_get_model(ptr noundef %0) #25
  store ptr %9, ptr %5, align 8, !tbaa !148
  %10 = call i32 @gtk_tree_selection_get_selected(ptr noundef %8, ptr noundef nonnull %5, ptr noundef nonnull %4) #25
  %.not = icmp eq i32 %10, 0
  br i1 %.not, label %.critedge, label %11

11:                                               ; preds = %3
  %12 = getelementptr inbounds nuw i8, ptr %1, i64 80
  %13 = load double, ptr %12, align 8, !tbaa !165
  %14 = fcmp reassoc nsz arcp contract afn ogt double %13, 0.000000e+00
  %15 = load ptr, ptr %5, align 8, !tbaa !148
  br i1 %14, label %16, label %18

16:                                               ; preds = %11
  %17 = call i32 @gtk_tree_model_iter_next(ptr noundef %15, ptr noundef nonnull %4) #25
  br label %20

18:                                               ; preds = %11
  %19 = call i32 @gtk_tree_model_iter_previous(ptr noundef %15, ptr noundef nonnull %4) #25
  br label %20

20:                                               ; preds = %18, %16
  %.011 = phi i32 [ %17, %16 ], [ %19, %18 ]
  %.not12 = icmp eq i32 %.011, 0
  br i1 %.not12, label %.critedge, label %21

21:                                               ; preds = %20
  call void @gtk_tree_selection_select_iter(ptr noundef %8, ptr noundef nonnull %4) #25
  %22 = load ptr, ptr %5, align 8, !tbaa !148
  %23 = call ptr @gtk_tree_model_get_path(ptr noundef %22, ptr noundef nonnull %4) #25
  call void @gtk_tree_view_set_cursor(ptr noundef %0, ptr noundef %23, ptr noundef null, i32 noundef 0) #25
  call void @gtk_tree_path_free(ptr noundef %23) #25
  br label %.critedge

.critedge:                                        ; preds = %3, %20, %21
  %.1 = phi i32 [ 1, %21 ], [ 0, %20 ], [ 0, %3 ]
  call void @llvm.lifetime.end.p0(i64 8, ptr nonnull %5) #25
  call void @llvm.lifetime.end.p0(i64 32, ptr nonnull %4) #25
  ret i32 %.1
}